target datalayout = "e-m:e-p270:32:32-p271:32:32-p272:64:64-i64:64-i128:128-f80:128-n8:16:32:64-S128"
target triple = "x86_64-pc-linux-gnu"

@.str.14 = private unnamed_addr constant [3 x i8] c"\01\1E\00", align 1

; Function Attrs: mustprogress optsize uwtable
define internal noundef i32 @_ZN5ZXing10DataMatrix10C40EncoderL10EncodeCharEiRNSt7__cxx1112basic_stringIcSt11char_traitsIcESaIcEEE(i32 noundef %0, ptr noundef nonnull align 8 dereferenceable(32) %1) #0 {
  %3 = alloca i32, align 4
  %4 = alloca i32, align 4
  %5 = alloca ptr, align 8
  %6 = alloca i32, align 4
  store i32 %0, ptr %4, align 4, !tbaa !12
  store ptr %1, ptr %5, align 8, !tbaa !26
  %7 = load i32, ptr %4, align 4, !tbaa !12
  %8 = icmp eq i32 %7, 32
  br i1 %8, label %9, label %11

9:                                                ; preds = %2
  %10 = load ptr, ptr %5, align 8, !tbaa !26
  call void @_ZNSt7__cxx1112basic_stringIcSt11char_traitsIcESaIcEE9push_backEc(ptr noundef nonnull align 8 dereferenceable(32) %10, i8 noundef signext 3) #19
  store i32 1, ptr %3, align 4
  br label %96

11:                                               ; preds = %2
  %12 = load i32, ptr %4, align 4, !tbaa !12
  %13 = icmp sge i32 %12, 48
  br i1 %13, label %14, label %23

14:                                               ; preds = %11
  %15 = load i32, ptr %4, align 4, !tbaa !12
  %16 = icmp sle i32 %15, 57
  br i1 %16, label %17, label %23

17:                                               ; preds = %14
  %18 = load ptr, ptr %5, align 8, !tbaa !26
  %19 = load i32, ptr %4, align 4, !tbaa !12
  %20 = sub nsw i32 %19, 48
  %21 = add nsw i32 %20, 4
  %22 = trunc i32 %21 to i8
  call void @_ZNSt7__cxx1112basic_stringIcSt11char_traitsIcESaIcEE9push_backEc(ptr noundef nonnull align 8 dereferenceable(32) %18, i8 noundef signext %22) #19
  store i32 1, ptr %3, align 4
  br label %96

23:                                               ; preds = %14, %11
  %24 = load i32, ptr %4, align 4, !tbaa !12
  %25 = icmp sge i32 %24, 65
  br i1 %25, label %26, label %35

26:                                               ; preds = %23
  %27 = load i32, ptr %4, align 4, !tbaa !12
  %28 = icmp sle i32 %27, 90
  br i1 %28, label %29, label %35

29:                                               ; preds = %26
  %30 = load ptr, ptr %5, align 8, !tbaa !26
  %31 = load i32, ptr %4, align 4, !tbaa !12
  %32 = sub nsw i32 %31, 65
  %33 = add nsw i32 %32, 14
  %34 = trunc i32 %33 to i8
  call void @_ZNSt7__cxx1112basic_stringIcSt11char_traitsIcESaIcEE9push_backEc(ptr noundef nonnull align 8 dereferenceable(32) %30, i8 noundef signext %34) #19
  store i32 1, ptr %3, align 4
  br label %96

35:                                               ; preds = %26, %23
  %36 = load i32, ptr %4, align 4, !tbaa !12
  %37 = icmp sge i32 %36, 0
  br i1 %37, label %38, label %46

38:                                               ; preds = %35
  %39 = load i32, ptr %4, align 4, !tbaa !12
  %40 = icmp sle i32 %39, 31
  br i1 %40, label %41, label %46

41:                                               ; preds = %38
  %42 = load ptr, ptr %5, align 8, !tbaa !26
  call void @_ZNSt7__cxx1112basic_stringIcSt11char_traitsIcESaIcEE9push_backEc(ptr noundef nonnull align 8 dereferenceable(32) %42, i8 noundef signext 0) #19
  %43 = load ptr, ptr %5, align 8, !tbaa !26
  %44 = load i32, ptr %4, align 4, !tbaa !12
  %45 = trunc i32 %44 to i8
  call void @_ZNSt7__cxx1112basic_stringIcSt11char_traitsIcESaIcEE9push_backEc(ptr noundef nonnull align 8 dereferenceable(32) %43, i8 noundef signext %45) #19
  store i32 2, ptr %3, align 4
  br label %96

46:                                               ; preds = %38, %35
  %47 = load i32, ptr %4, align 4, !tbaa !12
  %48 = icmp sle i32 %47, 47
  br i1 %48, label %49, label %55

49:                                               ; preds = %46
  %50 = load ptr, ptr %5, align 8, !tbaa !26
  call void @_ZNSt7__cxx1112basic_stringIcSt11char_traitsIcESaIcEE9push_backEc(ptr noundef nonnull align 8 dereferenceable(32) %50, i8 noundef signext 1) #19
  %51 = load ptr, ptr %5, align 8, !tbaa !26
  %52 = load i32, ptr %4, align 4, !tbaa !12
  %53 = sub nsw i32 %52, 33
  %54 = trunc i32 %53 to i8
  call void @_ZNSt7__cxx1112basic_stringIcSt11char_traitsIcESaIcEE9push_backEc(ptr noundef nonnull align 8 dereferenceable(32) %51, i8 noundef signext %54) #19
  store i32 2, ptr %3, align 4
  br label %96

55:                                               ; preds = %46
  %56 = load i32, ptr %4, align 4, !tbaa !12
  %57 = icmp sle i32 %56, 64
  br i1 %57, label %58, label %65

58:                                               ; preds = %55
  %59 = load ptr, ptr %5, align 8, !tbaa !26
  call void @_ZNSt7__cxx1112basic_stringIcSt11char_traitsIcESaIcEE9push_backEc(ptr noundef nonnull align 8 dereferenceable(32) %59, i8 noundef signext 1) #19
  %60 = load ptr, ptr %5, align 8, !tbaa !26
  %61 = load i32, ptr %4, align 4, !tbaa !12
  %62 = sub nsw i32 %61, 58
  %63 = add nsw i32 %62, 15
  %64 = trunc i32 %63 to i8
  call void @_ZNSt7__cxx1112basic_stringIcSt11char_traitsIcESaIcEE9push_backEc(ptr noundef nonnull align 8 dereferenceable(32) %60, i8 noundef signext %64) #19
  store i32 2, ptr %3, align 4
  br label %96

65:                                               ; preds = %55
  %66 = load i32, ptr %4, align 4, !tbaa !12
  %67 = icmp sle i32 %66, 95
  br i1 %67, label %68, label %75

68:                                               ; preds = %65
  %69 = load ptr, ptr %5, align 8, !tbaa !26
  call void @_ZNSt7__cxx1112basic_stringIcSt11char_traitsIcESaIcEE9push_backEc(ptr noundef nonnull align 8 dereferenceable(32) %69, i8 noundef signext 1) #19
  %70 = load ptr, ptr %5, align 8, !tbaa !26
  %71 = load i32, ptr %4, align 4, !tbaa !12
  %72 = sub nsw i32 %71, 91
  %73 = add nsw i32 %72, 22
  %74 = trunc i32 %73 to i8
  call void @_ZNSt7__cxx1112basic_stringIcSt11char_traitsIcESaIcEE9push_backEc(ptr noundef nonnull align 8 dereferenceable(32) %70, i8 noundef signext %74) #19
  store i32 2, ptr %3, align 4
  br label %96

75:                                               ; preds = %65
  %76 = load i32, ptr %4, align 4, !tbaa !12
  %77 = icmp sle i32 %76, 127
  br i1 %77, label %78, label %84

78:                                               ; preds = %75
  %79 = load ptr, ptr %5, align 8, !tbaa !26
  call void @_ZNSt7__cxx1112basic_stringIcSt11char_traitsIcESaIcEE9push_backEc(ptr noundef nonnull align 8 dereferenceable(32) %79, i8 noundef signext 2) #19
  %80 = load ptr, ptr %5, align 8, !tbaa !26
  %81 = load i32, ptr %4, align 4, !tbaa !12
  %82 = sub nsw i32 %81, 96
  %83 = trunc i32 %82 to i8
  call void @_ZNSt7__cxx1112basic_stringIcSt11char_traitsIcESaIcEE9push_backEc(ptr noundef nonnull align 8 dereferenceable(32) %80, i8 noundef signext %83) #19
  store i32 2, ptr %3, align 4
  br label %96

84:                                               ; preds = %75
  %85 = load ptr, ptr %5, align 8, !tbaa !26
  %86 = call noundef nonnull align 8 dereferenceable(32) ptr @_ZNSt7__cxx1112basic_stringIcSt11char_traitsIcESaIcEE6appendEPKc(ptr noundef nonnull align 8 dereferenceable(32) %85, ptr noundef @.str.14) #19
  call void @llvm.lifetime.start.p0(i64 4, ptr %6) #20
  store i32 2, ptr %6, align 4, !tbaa !12
  %87 = load i32, ptr %4, align 4, !tbaa !12
  %88 = sub nsw i32 %87, 128
  %89 = trunc i32 %88 to i8
  %90 = sext i8 %89 to i32
  %91 = load ptr, ptr %5, align 8, !tbaa !26
  %92 = call noundef i32 @_ZN5ZXing10DataMatrix10C40EncoderL10EncodeCharEiRNSt7__cxx1112basic_stringIcSt11char_traitsIcESaIcEEE(i32 noundef %90, ptr noundef nonnull align 8 dereferenceable(32) %91) #19
  %93 = load i32, ptr %6, align 4, !tbaa !12
  %94 = add nsw i32 %93, %92
  store i32 %94, ptr %6, align 4, !tbaa !12
  %95 = load i32, ptr %6, align 4, !tbaa !12
  store i32 %95, ptr %3, align 4
  call void @llvm.lifetime.end.p0(i64 4, ptr %6) #20
  br label %96

96:                                               ; preds = %84, %78, %68, %58, %49, %41, %29, %17, %9
  %97 = load i32, ptr %3, align 4
  ret i32 %97
}